; Function Attrs: nounwind uwtable
define range(i32 -1, 1) i32 @H5F_flush_mounts(ptr noundef %0) local_unnamed_addr #0 {
  %2 = load i8, ptr @H5F_init_g, align 1, !tbaa !3, !range !7, !noundef !8
  %3 = trunc nuw i8 %2 to i1
  %4 = load i8, ptr @H5_libterm_g, align 1, !range !7
  %5 = trunc nuw i8 %4 to i1
  %6 = select i1 %3, i1 true, i1 %5
  br i1 %6, label %14, label %7, !prof !9

7:                                                ; preds = %1
  store i8 1, ptr @H5F_init_g, align 1, !tbaa !3
  %8 = tail call i32 @H5F__init_package() #6
  %9 = icmp slt i32 %8, 0
  br i1 %9, label %10, label %._crit_edge

._crit_edge:                                      ; preds = %7
  %.pre = load i8, ptr @H5F_init_g, align 1, !tbaa !3, !range !7
  %.pre7 = load i8, ptr @H5_libterm_g, align 1, !range !7
  %.pre8 = trunc nuw i8 %.pre to i1
  %.pre9 = trunc nuw i8 %.pre7 to i1
  br label %14

10:                                               ; preds = %7
  store i8 0, ptr @H5F_init_g, align 1, !tbaa !3
  %11 = load i64, ptr @H5E_FUNC_g, align 8, !tbaa !45
  %12 = load i64, ptr @H5E_CANTINIT_g, align 8, !tbaa !45
  %13 = tail call i32 (ptr, ptr, i32, i64, i64, ptr, ...) @H5E_printf_stack(ptr noundef nonnull @.str, ptr noundef nonnull @__func__.H5F_flush_mounts, i32 noundef 536, i64 noundef %11, i64 noundef %12, ptr noundef nonnull @.str.3) #6
  br label %26

14:                                               ; preds = %._crit_edge, %1
  %.pre-phi10 = phi i1 [ %.pre9, %._crit_edge ], [ %5, %1 ]
  %.pre-phi = phi i1 [ %.pre8, %._crit_edge ], [ %3, %1 ]
  %15 = xor i1 %.pre-phi10, true
  %16 = select i1 %.pre-phi, i1 true, i1 %15
  br i1 %16, label %.preheader, label %26, !prof !9

.preheader:                                       ; preds = %14, %.preheader
  %.05 = phi ptr [ %18, %.preheader ], [ %0, %14 ]
  %17 = getelementptr inbounds nuw i8, ptr %.05, i64 56
  %18 = load ptr, ptr %17, align 8, !tbaa !43
  %.not = icmp eq ptr %18, null
  br i1 %.not, label %19, label %.preheader, !llvm.loop !73

19:                                               ; preds = %.preheader
  %20 = tail call fastcc i32 @H5F__flush_mounts_recurse(ptr noundef nonnull %.05)
  %21 = icmp slt i32 %20, 0
  br i1 %21, label %22, label %26

22:                                               ; preds = %19
  %23 = load i64, ptr @H5E_FILE_g, align 8, !tbaa !45
  %24 = load i64, ptr @H5E_CANTFLUSH_g, align 8, !tbaa !45
  %25 = tail call i32 (ptr, ptr, i32, i64, i64, ptr, ...) @H5E_printf_stack(ptr noundef nonnull @.str, ptr noundef nonnull @__func__.H5F_flush_mounts, i32 noundef 547, i64 noundef %23, i64 noundef %24, ptr noundef nonnull @.str.22) #6
  br label %26

26:                                               ; preds = %10, %22, %19, %14
  %.0 = phi i32 [ -1, %10 ], [ -1, %22 ], [ 0, %19 ], [ 0, %14 ]
  ret i32 %.0
}